(lp0
cnumpy.core.multiarray
scalar
p1
(cnumpy
dtype
p2
(S'S2159'
p3
I0
I1
tp4
Rp5
(I3
S'|'
p6
NNNI2159
I1
I0
tp7
bS'<trajectory>\n<configuration>\n<group name="deltatime" offset="6" dof="1" interpolation=""/>\n<group name="affine_velocities PR2 11" offset="3" dof="3" interpolation="linear"/>\n<group name="affine_transform PR2 11" offset="0" dof="3" interpolation="quadratic"/>\n<group name="iswaypoint" offset="7" dof="1" interpolation="next"/>\n</configuration>\n<data count="15">\n1.738979816436769 3.164432048797607 -1.570796326794897 0 0 0 0 1 1.74356192350598 3.147712520626857 -1.570796326794897 0.05011505625424993 -0.1828634910021656 0 0.1828634910021656 1 1.723216517231422 2.664432048797607 -1.462209757845878 -0.0999118920351145 -1 0.2657733873185853 0.8171365089978344 1 1.666349433046051 2.251744113116024 -1.324831434193851 -0.1756817430996317 -1 0.4000000059604645 0.4126879356815834 1 0.3761274076020037 -0.660527209792833 -0.1599228876718179 -0.7103772001689768 -1 0.4000000059604645 2.912271322908857 1 -0.1182871715773211 -1.433784789724301 0.1493801489097437 -0.5684064600523521 -1 0.4000000059604645 0.7732575799314683 1 -0.3190933782639949 -1.739176448139642 0.2998312194627 -0.4993491042830391 -0.6238723292223487 0.4000000059604645 0.3761276707776515 1 1.587534839418208 -3.506887994514251 4.557810680139926 0.8575712636336964 0.2917501874336399 0.4000000059604649 10.64494849307097 1 1.841778031352019 -3.41859718184738 4.657050160943535 0.8945645036167688 0.3167124802058848 0.2839162181744073 0.2902094651406859 1 2.625307708278013 -3.186056960172631 4.755056769517556 1 0.2455667322122107 -0.04693752139718058 0.8271343366037076 1 2.826469149549453 -3.135132598405115 4.742598828284553 1 0.2607366770858056 -0.07692260959275675 0.2011614412714395 1 2.928930121378621 -3.106444903037354 4.733391303719874 0.8916714957548345 0.2689059237727027 -0.0930700369195628 0.1083285042451655 1 3.31710201268711 -2.881993350224578 4.705603413513856 0.1368732030920794 0.3258266160187233 0.01944006060366646 0.7547982926627551 1 3.329840623599603 -2.851669091037011 4.707412674658849 0.1715713898154566 0.4084256383741665 0.02436823381435697 0.0825990223554432 0 3.364877700805664 -2.768263339996339 4.71238898038469 0 0 0 0.4084256383741665 1 </data>\n</trajectory>\n'
p8
tp9
Rp10
ag1
(g2
(S'S3464'
p11
I0
I1
tp12
Rp13
(I3
S'|'
p14
NNNI3464
I1
I0
tp15
bS'<trajectory>\n<configuration>\n<group name="deltatime" offset="6" dof="1" interpolation=""/>\n<group name="affine_velocities PR2 11" offset="3" dof="3" interpolation="linear"/>\n<group name="affine_transform PR2 11" offset="0" dof="3" interpolation="quadratic"/>\n<group name="iswaypoint" offset="7" dof="1" interpolation="next"/>\n</configuration>\n<data count="24">\n3.364877700805663 -2.76826333999634 -1.570796326794897 0 0 0 0 1 3.361214242789586 -2.767578519976679 -1.570796326794897 -0.08559740669059057 0.01600095250867739 0 0.08559740669059057 1 3.353973538906421 -2.759668243667107 -1.559913895502925 0.02351581878098485 0.05182153022586272 0.09330565450875081 0.2332641327959706 1 3.383763914661693 -2.750981632246888 -1.511737842032538 0.1685909054027452 0.004195100041045952 0.21736326394752 0.310144018975417 1 3.41198204114909 -2.76507322012641 -1.370796323814665 -0.04498761902401804 -0.06592019624761197 0.4000000059604645 0.4565918482286127 1 2.959738320867187 -2.979918323515492 -0.8517177296745854 -0.6520069896942381 -0.2651974557086471 0.4000000059604645 1.297696466013015 1 2.920560928727302 -2.995644908850601 -0.8283716219540361 -0.690482925716901 -0.2737047290221212 0.4000000059604645 0.05836526843166268 1 2.880158390415537 -3.011472830984938 -0.8062348416737595 -0.7280353869374601 -0.2820078162039058 0.3772142365821568 0.05696442259693324 1 2.645176152732125 -3.093796914260927 -0.7047094314678157 -1 -0.3233950878647862 0.3693932654945746 0.2719646130625399 1 2.42505877231264 -3.168668453735946 -0.6240962232782812 -1 -0.3568923054553984 0.3630632814251425 0.2201173804194847 1 0.04581860173331329 -3.58707507991484 0.1583240590445516 -1 0.005177811599139714 0.2946427307697669 2.379240170579328 1 -0.1348751900798425 -3.582964980320157 0.2169281220844742 -0.7991322896577816 0.03574563585471931 0.288866315458507 0.2008677103422185 1 -0.3476746490148228 -3.562225190077787 0.3160877125308158 -0.4615338541252721 0.08712098945801758 0.298574738822048 0.3375984355325095 1 -0.4519347160027389 -3.517405855227431 0.4377528728518741 -0.06703256319053984 0.1400992294880938 0.3182301392192099 0.3945012909347323 1 -0.4673983457680022 -3.485086598554454 0.5111648508340678 -0.08425671352671986 0.1760980049463246 0.4000000059604645 0.2044246638069716 0 -1.130916499321802 -2.098322052493219 3.661148445817622 -0.08425671352671986 0.1760980049463246 0.4000000059604645 7.874958870112852 1 -1.175583478247876 -2.004836948298102 3.84375659749537 -0.1114277799913519 0.2334570109902185 0.4000000059604645 0.4565203723916866 1 -1.18476004547295 -1.855470249376454 4.267355428417412 0.09409710447113924 0.04863385469467563 0.4000000059604645 1.058997061524821 1 -1.097828954728099 -1.855206685853598 4.510786217877985 0.191589327332691 -0.04776769137206212 0.4000000059604645 0.60857696458293 1 -0.9339391075268947 -1.922543072390085 4.688815306325589 0.2986901474996249 -0.1536703402815049 0.1325772676140858 0.6685568359036735 1 -0.9159187744930095 -1.931389539836004 4.695983142885432 0.3082035235241301 -0.1442633934486389 0.1088230791454391 0.05938547028670427 1 -0.8411200424269584 -1.963575054249368 4.710758581310042 0.2665039255123745 -0.1030303022265488 0.004702301443964762 0.2603019403748847 1 -0.8126745223954939 -1.974572079978721 4.711260485398926 0.3576526001253649 -0.1382683403712804 0.006310564974883139 0.09114867461299048 0 -0.7487168312072767 -1.999298095703125 4.71238898038469 0 0 0 0.3576526001253649 1 </data>\n</trajectory>\n'
p16
tp17
Rp18
a.